target datalayout = "e-m:e-p270:32:32-p271:32:32-p272:64:64-i64:64-i128:128-f80:128-n8:16:32:64-S128"
target triple = "x86_64-pc-linux-gnu"

%struct.jit_State = type { %struct.GCtrace, ptr, ptr, ptr, ptr, ptr, ptr, i32, i32, i32, i8, i8, %struct.IRType1, i8, %struct.FoldState, ptr, i32, i32, i32, i32, i32, i32, i32, [1 x i32], [5 x %union.TValue], [3 x %union.TValue], ptr, i32, i32, i32, i32, ptr, ptr, i32, i32, i8, ptr, i32, i32, i16, [101 x i16], [258 x i32], [15 x i32], [16 x ptr], [64 x %struct.HotPenalty], i32, [16 x %struct.BPropEntry], i32, %struct.ScEvEntry, ptr, i32, i32, i32, ptr, i32, i32, ptr, ptr, ptr, i64, i64, %union.TValue, ptr, i32, i32 }
%struct.GCtrace = type { %struct.GCRef, i8, i8, i16, i32, i32, %struct.GCRef, ptr, i32, i32, ptr, ptr, %struct.GCRef, %struct.MRef, i32, i32, ptr, i32, i16, i16, i16, i16, i16, i16, i16, i8, i8, i8, i8 }
%struct.GCRef = type { i64 }
%struct.MRef = type { i64 }
%struct.IRType1 = type { i8 }
%struct.FoldState = type { %union.IRIns, [2 x %union.IRIns], [2 x %union.IRIns] }
%union.IRIns = type { %struct.GCRef }
%struct.HotPenalty = type { %struct.MRef, i16, i16 }
%struct.BPropEntry = type { i16, i16, i32 }
%struct.ScEvEntry = type { %struct.MRef, i16, i16, i16, i16, %struct.IRType1, i8 }
%union.TValue = type { i64 }
%struct.anon.0 = type { i32, %struct.IRType1, i8, i8, i8 }
%struct.anon = type { i16, i16, i16, i16 }

; Function Attrs: nounwind uwtable
define internal i32 @fold_simplify_intsub_kleft(ptr noundef %0) #0 {
  %2 = alloca i32, align 4
  %3 = alloca ptr, align 8
  store ptr %0, ptr %3, align 8, !tbaa !4
  %4 = load ptr, ptr %3, align 8, !tbaa !4
  %5 = getelementptr inbounds nuw %struct.jit_State, ptr %4, i32 0, i32 14
  %6 = getelementptr inbounds nuw %struct.FoldState, ptr %5, i32 0, i32 1
  %7 = getelementptr inbounds [2 x %union.IRIns], ptr %6, i64 0, i64 0
  %8 = getelementptr inbounds nuw %struct.anon.0, ptr %7, i32 0, i32 2
  %9 = load i8, ptr %8, align 1, !tbaa !29
  %10 = zext i8 %9 to i32
  %11 = icmp eq i32 %10, 23
  br i1 %11, label %12, label %19

12:                                               ; preds = %1
  %13 = load ptr, ptr %3, align 8, !tbaa !4
  %14 = getelementptr inbounds nuw %struct.jit_State, ptr %13, i32 0, i32 14
  %15 = getelementptr inbounds nuw %struct.FoldState, ptr %14, i32 0, i32 1
  %16 = getelementptr inbounds [2 x %union.IRIns], ptr %15, i64 0, i64 0
  %17 = load i32, ptr %16, align 8, !tbaa !29
  %18 = icmp eq i32 %17, 0
  br i1 %18, label %26, label %40

19:                                               ; preds = %1
  %20 = load ptr, ptr %3, align 8, !tbaa !4
  %21 = getelementptr inbounds nuw %struct.jit_State, ptr %20, i32 0, i32 14
  %22 = getelementptr inbounds nuw %struct.FoldState, ptr %21, i32 0, i32 1
  %23 = getelementptr inbounds [2 x %union.IRIns], ptr %22, i64 0, i64 1
  %24 = load i64, ptr %23, align 8, !tbaa !29
  %25 = icmp eq i64 %24, 0
  br i1 %25, label %26, label %40

26:                                               ; preds = %19, %12
  %27 = load ptr, ptr %3, align 8, !tbaa !4
  %28 = getelementptr inbounds nuw %struct.jit_State, ptr %27, i32 0, i32 14
  %29 = getelementptr inbounds nuw %struct.FoldState, ptr %28, i32 0, i32 0
  %30 = getelementptr inbounds nuw %struct.anon.0, ptr %29, i32 0, i32 2
  store i8 47, ptr %30, align 1, !tbaa !29
  %31 = load ptr, ptr %3, align 8, !tbaa !4
  %32 = getelementptr inbounds nuw %struct.jit_State, ptr %31, i32 0, i32 14
  %33 = getelementptr inbounds nuw %struct.FoldState, ptr %32, i32 0, i32 0
  %34 = getelementptr inbounds nuw %struct.anon, ptr %33, i32 0, i32 1
  %35 = load i16, ptr %34, align 2, !tbaa !29
  %36 = load ptr, ptr %3, align 8, !tbaa !4
  %37 = getelementptr inbounds nuw %struct.jit_State, ptr %36, i32 0, i32 14
  %38 = getelementptr inbounds nuw %struct.FoldState, ptr %37, i32 0, i32 0
  %39 = getelementptr inbounds nuw %struct.anon, ptr %38, i32 0, i32 0
  store i16 %35, ptr %39, align 8, !tbaa !29
  store i32 1, ptr %2, align 4
  br label %41

40:                                               ; preds = %19, %12
  store i32 0, ptr %2, align 4
  br label %41

41:                                               ; preds = %40, %26
  %42 = load i32, ptr %2, align 4
  ret i32 %42
}