; Function Attrs: mustprogress nofree norecurse nosync nounwind willreturn memory(argmem: readwrite) uwtable
define internal range(i32 0, 2) i32 @fold_simplify_intsub_kleft(ptr noundef captures(none) %0) #5 {
  %2 = getelementptr inbounds nuw i8, ptr %0, i64 184
  %3 = getelementptr inbounds nuw i8, ptr %0, i64 197
  %4 = load i8, ptr %3, align 1, !tbaa !28
  %5 = icmp eq i8 %4, 23
  br i1 %5, label %6, label %10

6:                                                ; preds = %1
  %7 = getelementptr inbounds nuw i8, ptr %0, i64 192
  %8 = load i32, ptr %7, align 8, !tbaa !28
  %9 = icmp eq i32 %8, 0
  br i1 %9, label %14, label %18

10:                                               ; preds = %1
  %11 = getelementptr inbounds nuw i8, ptr %0, i64 200
  %12 = load i64, ptr %11, align 8, !tbaa !28
  %13 = icmp eq i64 %12, 0
  br i1 %13, label %14, label %18

14:                                               ; preds = %10, %6
  %15 = getelementptr inbounds nuw i8, ptr %0, i64 189
  store i8 47, ptr %15, align 1, !tbaa !28
  %16 = getelementptr inbounds nuw i8, ptr %0, i64 186
  %17 = load i16, ptr %16, align 2, !tbaa !28
  store i16 %17, ptr %2, align 8, !tbaa !28
  br label %18

18:                                               ; preds = %6, %10, %14
  %.0 = phi i32 [ 1, %14 ], [ 0, %10 ], [ 0, %6 ]
  ret i32 %.0
}